; Function Attrs: mustprogress uwtable
define noundef zeroext i1 @Z3_is_algebraic_number(ptr noundef %c, ptr noundef %a) local_unnamed_addr #3 personality ptr @__gxx_personality_v0 {
entry:
  %0 = atomicrmw xchg ptr @g_z3_log_enabled, i8 0 seq_cst, align 1
  %tobool.i = trunc i8 %0 to i1
  br i1 %tobool.i, label %if.then, label %if.end

if.then:                                          ; preds = %entry
  invoke void @_Z26log_Z3_is_algebraic_numberP11_Z3_contextP7_Z3_ast(ptr noundef %c, ptr noundef %a)
          to label %if.end unwind label %lpad.thread

lpad.thread:                                      ; preds = %if.then
  %1 = landingpad { ptr, i32 }
          cleanup
  br label %if.then.i

lpad:                                             ; preds = %if.end
  %2 = landingpad { ptr, i32 }
          cleanup
  br i1 %tobool.i, label %if.then.i, label %_ZN10z3_log_ctxD2Ev.exit

if.then.i:                                        ; preds = %lpad.thread, %lpad
  %3 = phi { ptr, i32 } [ %1, %lpad.thread ], [ %2, %lpad ]
  store atomic i8 1, ptr @g_z3_log_enabled seq_cst, align 1
  br label %_ZN10z3_log_ctxD2Ev.exit

_ZN10z3_log_ctxD2Ev.exit:                         ; preds = %lpad, %if.then.i
  %4 = phi { ptr, i32 } [ %2, %lpad ], [ %3, %if.then.i ]
  resume { ptr, i32 } %4

if.end:                                           ; preds = %if.then, %entry
  %m_arith_util.i = getelementptr inbounds nuw i8, ptr %c, i64 296
  %call9 = invoke noundef zeroext i1 @_ZNK17arith_recognizers31is_irrational_algebraic_numeralEPK4expr(ptr noundef nonnull align 1 dereferenceable(1) %m_arith_util.i, ptr noundef %a)
          to label %invoke.cont8 unwind label %lpad

invoke.cont8:                                     ; preds = %if.end
  br i1 %tobool.i, label %if.then.i5, label %_ZN10z3_log_ctxD2Ev.exit6

if.then.i5:                                       ; preds = %invoke.cont8
  store atomic i8 1, ptr @g_z3_log_enabled seq_cst, align 1
  br label %_ZN10z3_log_ctxD2Ev.exit6

_ZN10z3_log_ctxD2Ev.exit6:                        ; preds = %invoke.cont8, %if.then.i5
  ret i1 %call9
}